target datalayout = "e-m:e-p270:32:32-p271:32:32-p272:64:64-i64:64-i128:128-f80:128-n8:16:32:64-S128"
target triple = "x86_64-pc-linux-gnu"

%struct.PyWideStringList = type { i64, ptr }
%struct._object = type { %union.anon.41, ptr }
%union.anon.41 = type { i64 }
%struct.PyConfig = type { i32, i32, i32, i32, i32, i32, i64, i32, i32, i32, i32, i32, i32, i32, ptr, i32, ptr, ptr, ptr, i32, %struct.PyWideStringList, %struct.PyWideStringList, %struct.PyWideStringList, %struct.PyWideStringList, i32, i32, i32, i32, i32, i32, i32, i32, i32, i32, i32, i32, i32, ptr, ptr, ptr, i32, i32, i32, i32, i32, ptr, ptr, ptr, ptr, i32, %struct.PyWideStringList, ptr, ptr, ptr, ptr, ptr, ptr, ptr, i32, ptr, ptr, ptr, ptr, i32, i32, i32 }
%struct.PyCompilerFlags = type { i32, i32 }
%struct.anon.42 = type { i32, i32 }
%struct.stat = type { i64, i64, i64, i32, i32, i32, i32, i64, i64, i64, i64, %struct.timespec, %struct.timespec, %struct.timespec, [3 x i64] }
%struct.timespec = type { i64, i64 }

@.str.9 = private unnamed_addr constant [2 x i8] c"O\00", align 1
@.str.20 = private unnamed_addr constant [17 x i8] c"cpython.run_file\00", align 1
@.str.21 = private unnamed_addr constant [3 x i8] c"rb\00", align 1
@.str.22 = private unnamed_addr constant [39 x i8] c"%S: can't open file %R: [Errno %d] %s\0A\00", align 1
@.str.23 = private unnamed_addr constant [40 x i8] c"%S: %R is a directory, cannot continue\0A\00", align 1
@__const.pymain_run_file_obj.cf = private unnamed_addr constant %struct.PyCompilerFlags { i32 0, i32 14 }, align 4

; Function Attrs: nounwind uwtable
define internal i32 @pymain_err_print(ptr noundef %0) #0 {
  %2 = alloca i32, align 4
  %3 = alloca ptr, align 8
  %4 = alloca i32, align 4
  %5 = alloca i32, align 4
  store ptr %0, ptr %3, align 8, !tbaa !176
  call void @llvm.lifetime.start.p0(i64 4, ptr %4) #13
  %6 = call i32 @_Py_HandleSystemExit(ptr noundef %4)
  %7 = icmp ne i32 %6, 0
  br i1 %7, label %8, label %11

8:                                                ; preds = %1
  %9 = load i32, ptr %4, align 4, !tbaa !4
  %10 = load ptr, ptr %3, align 8, !tbaa !176
  store i32 %9, ptr %10, align 4, !tbaa !4
  store i32 1, ptr %2, align 4
  store i32 1, ptr %5, align 4
  br label %12

11:                                               ; preds = %1
  call void @PyErr_Print()
  store i32 0, ptr %2, align 4
  store i32 1, ptr %5, align 4
  br label %12

12:                                               ; preds = %11, %8
  call void @llvm.lifetime.end.p0(i64 4, ptr %4) #13
  %13 = load i32, ptr %2, align 4
  ret i32 %13
}

; Function Attrs: nounwind uwtable
define internal i32 @pymain_exit_err_print() #0 {
  %1 = alloca i32, align 4
  call void @llvm.lifetime.start.p0(i64 4, ptr %1) #13
  store i32 1, ptr %1, align 4, !tbaa !4
  %2 = call i32 @pymain_err_print(ptr noundef %1)
  %3 = load i32, ptr %1, align 4, !tbaa !4
  call void @llvm.lifetime.end.p0(i64 4, ptr %1) #13
  ret i32 %3
}

; Function Attrs: alwaysinline nounwind uwtable
define internal i32 @_Py_IsImmortal(ptr noundef %0) #5 {
  %2 = alloca ptr, align 8
  store ptr %0, ptr %2, align 8, !tbaa !177
  %3 = load ptr, ptr %2, align 8, !tbaa !177
  %4 = getelementptr inbounds nuw %struct._object, ptr %3, i32 0, i32 0
  %5 = getelementptr inbounds nuw %struct.anon.42, ptr %4, i32 0, i32 0
  %6 = load i32, ptr %5, align 8, !tbaa !205
  %7 = icmp slt i32 %6, 0
  %8 = zext i1 %7 to i32
  ret i32 %8
}

; Function Attrs: nounwind uwtable
define internal i32 @pymain_run_file_obj(ptr noundef %0, ptr noundef %1, i32 noundef %2) #0 {
  %4 = alloca i32, align 4
  %5 = alloca ptr, align 8
  %6 = alloca ptr, align 8
  %7 = alloca i32, align 4
  %8 = alloca ptr, align 8
  %9 = alloca i32, align 4
  %10 = alloca i32, align 4
  %11 = alloca %struct.stat, align 8
  %12 = alloca %struct.PyCompilerFlags, align 4
  %13 = alloca i32, align 4
  store ptr %0, ptr %5, align 8, !tbaa !177
  store ptr %1, ptr %6, align 8, !tbaa !177
  store i32 %2, ptr %7, align 4, !tbaa !4
  %14 = load ptr, ptr %6, align 8, !tbaa !177
  %15 = call i32 (ptr, ptr, ...) @PySys_Audit(ptr noundef @.str.20, ptr noundef @.str.9, ptr noundef %14)
  %16 = icmp slt i32 %15, 0
  br i1 %16, label %17, label %19

17:                                               ; preds = %3
  %18 = call i32 @pymain_exit_err_print()
  store i32 %18, ptr %4, align 4
  br label %80

19:                                               ; preds = %3
  call void @llvm.lifetime.start.p0(i64 8, ptr %8) #13
  %20 = load ptr, ptr %6, align 8, !tbaa !177
  %21 = call ptr @Py_fopen(ptr noundef %20, ptr noundef @.str.21)
  store ptr %21, ptr %8, align 8, !tbaa !204
  %22 = load ptr, ptr %8, align 8, !tbaa !204
  %23 = icmp eq ptr %22, null
  br i1 %23, label %24, label %32

24:                                               ; preds = %19
  call void @PyErr_Clear()
  %25 = load ptr, ptr %5, align 8, !tbaa !177
  %26 = load ptr, ptr %6, align 8, !tbaa !177
  %27 = call ptr @__errno_location() #16
  %28 = load i32, ptr %27, align 4, !tbaa !4
  %29 = call ptr @__errno_location() #16
  %30 = load i32, ptr %29, align 4, !tbaa !4
  %31 = call ptr @strerror(i32 noundef %30) #13
  call void (ptr, ...) @PySys_FormatStderr(ptr noundef @.str.22, ptr noundef %25, ptr noundef %26, i32 noundef %28, ptr noundef %31)
  store i32 2, ptr %4, align 4
  store i32 1, ptr %9, align 4
  br label %79

32:                                               ; preds = %19
  %33 = load i32, ptr %7, align 4, !tbaa !4
  %34 = icmp ne i32 %33, 0
  br i1 %34, label %35, label %49

35:                                               ; preds = %32
  call void @llvm.lifetime.start.p0(i64 4, ptr %10) #13
  br label %36

36:                                               ; preds = %47, %35
  %37 = load ptr, ptr %8, align 8, !tbaa !204
  %38 = call i32 @getc(ptr noundef %37)
  store i32 %38, ptr %10, align 4, !tbaa !4
  %39 = icmp ne i32 %38, -1
  br i1 %39, label %40, label %48

40:                                               ; preds = %36
  %41 = load i32, ptr %10, align 4, !tbaa !4
  %42 = icmp eq i32 %41, 10
  br i1 %42, label %43, label %47

43:                                               ; preds = %40
  %44 = load i32, ptr %10, align 4, !tbaa !4
  %45 = load ptr, ptr %8, align 8, !tbaa !204
  %46 = call i32 @ungetc(i32 noundef %44, ptr noundef %45)
  br label %48

47:                                               ; preds = %40
  br label %36, !llvm.loop !215

48:                                               ; preds = %43, %36
  call void @llvm.lifetime.end.p0(i64 4, ptr %10) #13
  br label %49

49:                                               ; preds = %48, %32
  call void @llvm.lifetime.start.p0(i64 144, ptr %11) #13
  %50 = load ptr, ptr %8, align 8, !tbaa !204
  %51 = call i32 @fileno(ptr noundef %50) #13
  %52 = call i32 @_Py_fstat_noraise(i32 noundef %51, ptr noundef %11)
  %53 = icmp eq i32 %52, 0
  br i1 %53, label %54, label %64

54:                                               ; preds = %49
  %55 = getelementptr inbounds nuw %struct.stat, ptr %11, i32 0, i32 3
  %56 = load i32, ptr %55, align 8, !tbaa !217
  %57 = and i32 %56, 61440
  %58 = icmp eq i32 %57, 16384
  br i1 %58, label %59, label %64

59:                                               ; preds = %54
  %60 = load ptr, ptr %5, align 8, !tbaa !177
  %61 = load ptr, ptr %6, align 8, !tbaa !177
  call void (ptr, ...) @PySys_FormatStderr(ptr noundef @.str.23, ptr noundef %60, ptr noundef %61)
  %62 = load ptr, ptr %8, align 8, !tbaa !204
  %63 = call i32 @fclose(ptr noundef %62)
  store i32 1, ptr %4, align 4
  store i32 1, ptr %9, align 4
  br label %78

64:                                               ; preds = %54, %49
  %65 = call i32 @Py_MakePendingCalls()
  %66 = icmp eq i32 %65, -1
  br i1 %66, label %67, label %71

67:                                               ; preds = %64
  %68 = load ptr, ptr %8, align 8, !tbaa !204
  %69 = call i32 @fclose(ptr noundef %68)
  %70 = call i32 @pymain_exit_err_print()
  store i32 %70, ptr %4, align 4
  store i32 1, ptr %9, align 4
  br label %78

71:                                               ; preds = %64
  call void @llvm.lifetime.start.p0(i64 8, ptr %12) #13
  call void @llvm.memcpy.p0.p0.i64(ptr align 4 %12, ptr align 4 @__const.pymain_run_file_obj.cf, i64 8, i1 false)
  call void @llvm.lifetime.start.p0(i64 4, ptr %13) #13
  %72 = load ptr, ptr %8, align 8, !tbaa !204
  %73 = load ptr, ptr %6, align 8, !tbaa !177
  %74 = call i32 @_PyRun_AnyFileObject(ptr noundef %72, ptr noundef %73, i32 noundef 1, ptr noundef %12)
  store i32 %74, ptr %13, align 4, !tbaa !4
  %75 = load i32, ptr %13, align 4, !tbaa !4
  %76 = icmp ne i32 %75, 0
  %77 = zext i1 %76 to i32
  store i32 %77, ptr %4, align 4
  store i32 1, ptr %9, align 4
  call void @llvm.lifetime.end.p0(i64 4, ptr %13) #13
  call void @llvm.lifetime.end.p0(i64 8, ptr %12) #13
  br label %78

78:                                               ; preds = %71, %67, %59
  call void @llvm.lifetime.end.p0(i64 144, ptr %11) #13
  br label %79

79:                                               ; preds = %78, %24
  call void @llvm.lifetime.end.p0(i64 8, ptr %8) #13
  br label %80

80:                                               ; preds = %79, %17
  %81 = load i32, ptr %4, align 4
  ret i32 %81
}

; Function Attrs: alwaysinline nounwind uwtable
define internal void @Py_DECREF(ptr noundef %0) #5 {
  %2 = alloca ptr, align 8
  store ptr %0, ptr %2, align 8, !tbaa !177
  %3 = load ptr, ptr %2, align 8, !tbaa !177
  %4 = call i32 @_Py_IsImmortal(ptr noundef %3)
  %5 = icmp ne i32 %4, 0
  br i1 %5, label %6, label %7

6:                                                ; preds = %1
  br label %16

7:                                                ; preds = %1
  %8 = load ptr, ptr %2, align 8, !tbaa !177
  %9 = getelementptr inbounds nuw %struct._object, ptr %8, i32 0, i32 0
  %10 = getelementptr inbounds nuw %struct.anon.42, ptr %9, i32 0, i32 0
  %11 = load i32, ptr %10, align 8, !tbaa !205
  %12 = add i32 %11, -1
  store i32 %12, ptr %10, align 8, !tbaa !205
  %13 = icmp eq i32 %12, 0
  br i1 %13, label %14, label %16

14:                                               ; preds = %7
  %15 = load ptr, ptr %2, align 8, !tbaa !177
  call void @_Py_Dealloc(ptr noundef %15)
  br label %16

16:                                               ; preds = %6, %14, %7
  ret void
}

; Function Attrs: nounwind uwtable
define internal i32 @pymain_run_file(ptr noundef %0) #0 {
  %2 = alloca i32, align 4
  %3 = alloca ptr, align 8
  %4 = alloca ptr, align 8
  %5 = alloca i32, align 4
  %6 = alloca ptr, align 8
  %7 = alloca i32, align 4
  store ptr %0, ptr %3, align 8, !tbaa !179
  call void @llvm.lifetime.start.p0(i64 8, ptr %4) #13
  %8 = load ptr, ptr %3, align 8, !tbaa !179
  %9 = getelementptr inbounds nuw %struct.PyConfig, ptr %8, i32 0, i32 61
  %10 = load ptr, ptr %9, align 8, !tbaa !183
  %11 = call ptr @PyUnicode_FromWideChar(ptr noundef %10, i64 noundef -1)
  store ptr %11, ptr %4, align 8, !tbaa !177
  %12 = load ptr, ptr %4, align 8, !tbaa !177
  %13 = icmp eq ptr %12, null
  br i1 %13, label %14, label %15

14:                                               ; preds = %1
  call void @PyErr_Print()
  store i32 -1, ptr %2, align 4
  store i32 1, ptr %5, align 4
  br label %35

15:                                               ; preds = %1
  call void @llvm.lifetime.start.p0(i64 8, ptr %6) #13
  %16 = load ptr, ptr %3, align 8, !tbaa !179
  %17 = getelementptr inbounds nuw %struct.PyConfig, ptr %16, i32 0, i32 45
  %18 = load ptr, ptr %17, align 8, !tbaa !211
  %19 = call ptr @PyUnicode_FromWideChar(ptr noundef %18, i64 noundef -1)
  store ptr %19, ptr %6, align 8, !tbaa !177
  %20 = load ptr, ptr %6, align 8, !tbaa !177
  %21 = icmp eq ptr %20, null
  br i1 %21, label %22, label %24

22:                                               ; preds = %15
  %23 = load ptr, ptr %4, align 8, !tbaa !177
  call void @Py_DECREF(ptr noundef %23)
  call void @PyErr_Print()
  store i32 -1, ptr %2, align 4
  store i32 1, ptr %5, align 4
  br label %34

24:                                               ; preds = %15
  call void @llvm.lifetime.start.p0(i64 4, ptr %7) #13
  %25 = load ptr, ptr %6, align 8, !tbaa !177
  %26 = load ptr, ptr %4, align 8, !tbaa !177
  %27 = load ptr, ptr %3, align 8, !tbaa !179
  %28 = getelementptr inbounds nuw %struct.PyConfig, ptr %27, i32 0, i32 58
  %29 = load i32, ptr %28, align 8, !tbaa !212
  %30 = call i32 @pymain_run_file_obj(ptr noundef %25, ptr noundef %26, i32 noundef %29)
  store i32 %30, ptr %7, align 4, !tbaa !4
  %31 = load ptr, ptr %4, align 8, !tbaa !177
  call void @Py_DECREF(ptr noundef %31)
  %32 = load ptr, ptr %6, align 8, !tbaa !177
  call void @Py_DECREF(ptr noundef %32)
  %33 = load i32, ptr %7, align 4, !tbaa !4
  store i32 %33, ptr %2, align 4
  store i32 1, ptr %5, align 4
  call void @llvm.lifetime.end.p0(i64 4, ptr %7) #13
  br label %34

34:                                               ; preds = %24, %22
  call void @llvm.lifetime.end.p0(i64 8, ptr %6) #13
  br label %35

35:                                               ; preds = %34, %14
  call void @llvm.lifetime.end.p0(i64 8, ptr %4) #13
  %36 = load i32, ptr %2, align 4
  ret i32 %36
}