; Function Attrs: nounwind uwtable
define internal fastcc i32 @pymain_run_file(ptr noundef readonly captures(none) %0) unnamed_addr #0 {
  %2 = alloca i32, align 4
  %3 = alloca i32, align 4
  %4 = alloca %struct.stat, align 8
  %5 = alloca %struct.PyCompilerFlags, align 8
  %6 = getelementptr inbounds nuw i8, ptr %0, i64 416
  %7 = load ptr, ptr %6, align 8, !tbaa !25
  %8 = tail call ptr @PyUnicode_FromWideChar(ptr noundef %7, i64 noundef -1) #14
  %9 = icmp eq ptr %8, null
  br i1 %9, label %10, label %11

10:                                               ; preds = %1
  tail call void @PyErr_Print() #14
  br label %Py_DECREF.exit

11:                                               ; preds = %1
  %12 = getelementptr inbounds nuw i8, ptr %0, i64 280
  %13 = load ptr, ptr %12, align 8, !tbaa !208
  %14 = tail call ptr @PyUnicode_FromWideChar(ptr noundef %13, i64 noundef -1) #14
  %15 = icmp eq ptr %14, null
  br i1 %15, label %16, label %22

16:                                               ; preds = %11
  %17 = load i32, ptr %8, align 8, !tbaa !30
  %.not.i15 = icmp sgt i32 %17, -1
  br i1 %.not.i15, label %18, label %Py_DECREF.exit16

18:                                               ; preds = %16
  %19 = add nsw i32 %17, -1
  store i32 %19, ptr %8, align 8, !tbaa !30
  %20 = icmp eq i32 %19, 0
  br i1 %20, label %21, label %Py_DECREF.exit16

21:                                               ; preds = %18
  tail call void @_Py_Dealloc(ptr noundef nonnull %8) #14
  br label %Py_DECREF.exit16

Py_DECREF.exit16:                                 ; preds = %16, %18, %21
  tail call void @PyErr_Print() #14
  br label %Py_DECREF.exit

22:                                               ; preds = %11
  %23 = getelementptr inbounds nuw i8, ptr %0, i64 392
  %24 = load i32, ptr %23, align 8, !tbaa !209
  %25 = tail call i32 (ptr, ptr, ...) @PySys_Audit(ptr noundef nonnull @.str.20, ptr noundef nonnull @.str.9, ptr noundef nonnull %8) #14
  %26 = icmp slt i32 %25, 0
  br i1 %26, label %27, label %32

27:                                               ; preds = %22
  call void @llvm.lifetime.start.p0(i64 4, ptr nonnull %3) #14
  %28 = call i32 @_Py_HandleSystemExit(ptr noundef nonnull %3) #14
  %.not.i.i.i = icmp eq i32 %28, 0
  br i1 %.not.i.i.i, label %31, label %29

29:                                               ; preds = %27
  %30 = load i32, ptr %3, align 4, !tbaa !4
  br label %pymain_exit_err_print.exit.i

31:                                               ; preds = %27
  call void @PyErr_Print() #14
  br label %pymain_exit_err_print.exit.i

pymain_exit_err_print.exit.i:                     ; preds = %31, %29
  %.0.i.i = phi i32 [ 1, %31 ], [ %30, %29 ]
  call void @llvm.lifetime.end.p0(i64 4, ptr nonnull %3) #14
  br label %pymain_run_file_obj.exit

32:                                               ; preds = %22
  %33 = tail call ptr @Py_fopen(ptr noundef nonnull %8, ptr noundef nonnull @.str.21) #14
  %34 = icmp eq ptr %33, null
  br i1 %34, label %35, label %39

35:                                               ; preds = %32
  tail call void @PyErr_Clear() #14
  %36 = tail call ptr @__errno_location() #19
  %37 = load i32, ptr %36, align 4, !tbaa !4
  %38 = tail call ptr @strerror(i32 noundef %37) #14
  tail call void (ptr, ...) @PySys_FormatStderr(ptr noundef nonnull @.str.22, ptr noundef nonnull %14, ptr noundef nonnull %8, i32 noundef %37, ptr noundef %38) #14
  br label %pymain_run_file_obj.exit

39:                                               ; preds = %32
  %.not.i19 = icmp eq i32 %24, 0
  br i1 %.not.i19, label %.loopexit.i, label %.preheader.i

.preheader.i:                                     ; preds = %39, %.preheader.i
  %40 = tail call i32 @getc(ptr noundef nonnull %33)
  switch i32 %40, label %.preheader.i [
    i32 -1, label %.loopexit.i
    i32 10, label %41
  ]

41:                                               ; preds = %.preheader.i
  %42 = tail call i32 @ungetc(i32 noundef 10, ptr noundef nonnull %33)
  br label %.loopexit.i

.loopexit.i:                                      ; preds = %.preheader.i, %41, %39
  call void @llvm.lifetime.start.p0(i64 144, ptr nonnull %4) #14
  %43 = tail call i32 @fileno(ptr noundef nonnull %33) #14
  %44 = call i32 @_Py_fstat_noraise(i32 noundef %43, ptr noundef nonnull %4) #14
  %45 = icmp eq i32 %44, 0
  br i1 %45, label %46, label %53

46:                                               ; preds = %.loopexit.i
  %47 = getelementptr inbounds nuw i8, ptr %4, i64 24
  %48 = load i32, ptr %47, align 8, !tbaa !210
  %49 = and i32 %48, 61440
  %50 = icmp eq i32 %49, 16384
  br i1 %50, label %51, label %53

51:                                               ; preds = %46
  call void (ptr, ...) @PySys_FormatStderr(ptr noundef nonnull @.str.23, ptr noundef nonnull %14, ptr noundef nonnull %8) #14
  %52 = call i32 @fclose(ptr noundef nonnull %33)
  br label %66

53:                                               ; preds = %46, %.loopexit.i
  %54 = call i32 @Py_MakePendingCalls() #14
  %55 = icmp eq i32 %54, -1
  br i1 %55, label %56, label %62

56:                                               ; preds = %53
  %57 = call i32 @fclose(ptr noundef nonnull %33)
  call void @llvm.lifetime.start.p0(i64 4, ptr nonnull %2) #14
  %58 = call i32 @_Py_HandleSystemExit(ptr noundef nonnull %2) #14
  %.not.i.i21.i = icmp eq i32 %58, 0
  br i1 %.not.i.i21.i, label %61, label %59

59:                                               ; preds = %56
  %60 = load i32, ptr %2, align 4, !tbaa !4
  br label %pymain_exit_err_print.exit23.i

61:                                               ; preds = %56
  call void @PyErr_Print() #14
  br label %pymain_exit_err_print.exit23.i

pymain_exit_err_print.exit23.i:                   ; preds = %61, %59
  %.0.i22.i = phi i32 [ 1, %61 ], [ %60, %59 ]
  call void @llvm.lifetime.end.p0(i64 4, ptr nonnull %2) #14
  br label %66

62:                                               ; preds = %53
  call void @llvm.lifetime.start.p0(i64 8, ptr nonnull %5) #14
  store i64 60129542144, ptr %5, align 8
  %63 = call i32 @_PyRun_AnyFileObject(ptr noundef nonnull %33, ptr noundef nonnull %8, i32 noundef 1, ptr noundef nonnull %5) #14
  %64 = icmp ne i32 %63, 0
  %65 = zext i1 %64 to i32
  call void @llvm.lifetime.end.p0(i64 8, ptr nonnull %5) #14
  br label %66

66:                                               ; preds = %62, %pymain_exit_err_print.exit23.i, %51
  %.2.i = phi i32 [ 1, %51 ], [ %.0.i22.i, %pymain_exit_err_print.exit23.i ], [ %65, %62 ]
  call void @llvm.lifetime.end.p0(i64 144, ptr nonnull %4) #14
  br label %pymain_run_file_obj.exit

pymain_run_file_obj.exit:                         ; preds = %pymain_exit_err_print.exit.i, %35, %66
  %.0.i = phi i32 [ %.0.i.i, %pymain_exit_err_print.exit.i ], [ 2, %35 ], [ %.2.i, %66 ]
  %67 = load i32, ptr %8, align 8, !tbaa !30
  %.not.i13 = icmp sgt i32 %67, -1
  br i1 %.not.i13, label %68, label %Py_DECREF.exit14

68:                                               ; preds = %pymain_run_file_obj.exit
  %69 = add nsw i32 %67, -1
  store i32 %69, ptr %8, align 8, !tbaa !30
  %70 = icmp eq i32 %69, 0
  br i1 %70, label %71, label %Py_DECREF.exit14

71:                                               ; preds = %68
  call void @_Py_Dealloc(ptr noundef nonnull %8) #14
  br label %Py_DECREF.exit14

Py_DECREF.exit14:                                 ; preds = %pymain_run_file_obj.exit, %68, %71
  %72 = load i32, ptr %14, align 8, !tbaa !30
  %.not.i = icmp sgt i32 %72, -1
  br i1 %.not.i, label %73, label %Py_DECREF.exit

73:                                               ; preds = %Py_DECREF.exit14
  %74 = add nsw i32 %72, -1
  store i32 %74, ptr %14, align 8, !tbaa !30
  %75 = icmp eq i32 %74, 0
  br i1 %75, label %76, label %Py_DECREF.exit

76:                                               ; preds = %73
  call void @_Py_Dealloc(ptr noundef nonnull %14) #14
  br label %Py_DECREF.exit

Py_DECREF.exit:                                   ; preds = %76, %73, %Py_DECREF.exit14, %Py_DECREF.exit16, %10
  %.0 = phi i32 [ -1, %10 ], [ -1, %Py_DECREF.exit16 ], [ %.0.i, %Py_DECREF.exit14 ], [ %.0.i, %73 ], [ %.0.i, %76 ]
  ret i32 %.0
}